target datalayout = "e-m:e-p270:32:32-p271:32:32-p272:64:64-i64:64-i128:128-f80:128-n8:16:32:64-S128"
target triple = "x86_64-pc-linux-gnu"

%struct.slurmctld_lock_t = type { i32, i32, i32, i32, i32 }

@accounting_enforce = dso_local global i16 0, align 2
@job_list = external global ptr, align 8
@__const._update_qos.job_write_lock = private unnamed_addr constant %struct.slurmctld_lock_t { i32 0, i32 2, i32 0, i32 0, i32 0 }, align 4

; Function Attrs: nounwind uwtable
define internal void @_update_qos(ptr noundef %0) #0 {
  %2 = alloca ptr, align 8
  %3 = alloca %struct.slurmctld_lock_t, align 8
  %4 = alloca i32, align 4
  store ptr %0, ptr %2, align 8
  call void @llvm.lifetime.start.p0(i64 20, ptr %3) #11
  call void @llvm.memcpy.p0.p0.i64(ptr align 4 %3, ptr align 4 @__const._update_qos.job_write_lock, i64 20, i1 false)
  %5 = load ptr, ptr @job_list, align 8
  %6 = icmp ne ptr %5, null
  br i1 %6, label %7, label %15

7:                                                ; preds = %1
  %8 = load i16, ptr @accounting_enforce, align 2
  %9 = icmp ne i16 %8, 0
  br i1 %9, label %10, label %15

10:                                               ; preds = %7
  %11 = load i16, ptr @accounting_enforce, align 2
  %12 = zext i16 %11 to i64
  %13 = and i64 %12, 2
  %14 = icmp ne i64 %13, 0
  br i1 %14, label %16, label %15

15:                                               ; preds = %10, %7, %1
  store i32 1, ptr %4, align 4
  br label %20

16:                                               ; preds = %10
  call void @lock_slurmctld(ptr noundef byval(%struct.slurmctld_lock_t) align 8 %3)
  %17 = load ptr, ptr @job_list, align 8
  %18 = load ptr, ptr %2, align 8
  %19 = call i32 @list_for_each(ptr noundef %17, ptr noundef @_update_qos_for_each, ptr noundef %18)
  call void @unlock_slurmctld(ptr noundef byval(%struct.slurmctld_lock_t) align 8 %3)
  store i32 0, ptr %4, align 4
  br label %20

20:                                               ; preds = %16, %15
  call void @llvm.lifetime.end.p0(i64 20, ptr %3) #11
  %21 = load i32, ptr %4, align 4
  switch i32 %21, label %23 [
    i32 0, label %22
    i32 1, label %22
  ]

22:                                               ; preds = %20, %20
  ret void

23:                                               ; preds = %20
  unreachable
}