; Function Attrs: nounwind uwtable
define internal void @_update_qos(ptr noundef %0) #6 {
  %2 = load ptr, ptr @job_list, align 8
  %3 = icmp eq ptr %2, null
  %4 = load i16, ptr @accounting_enforce, align 2
  %5 = and i16 %4, 2
  %.not = icmp eq i16 %5, 0
  %or.cond2 = select i1 %3, i1 true, i1 %.not
  br i1 %or.cond2, label %9, label %6

6:                                                ; preds = %1
  tail call void @lock_slurmctld(ptr noundef nonnull byval(%struct.slurmctld_lock_t) align 8 @__const._update_cluster_tres.job_write_lock) #19
  %7 = load ptr, ptr @job_list, align 8
  %8 = tail call i32 @list_for_each(ptr noundef %7, ptr noundef nonnull @_update_qos_for_each, ptr noundef %0) #19
  tail call void @unlock_slurmctld(ptr noundef nonnull byval(%struct.slurmctld_lock_t) align 8 @__const._update_cluster_tres.job_write_lock) #19
  br label %9

9:                                                ; preds = %1, %6
  ret void
}